target datalayout = "e-m:e-p270:32:32-p271:32:32-p272:64:64-i64:64-i128:128-f80:128-n8:16:32:64-S128"
target triple = "x86_64-pc-linux-gnu"

; Function Attrs: mustprogress uwtable
define i32 @zmq_poller_destroy(ptr noundef %0) #1 {
  %2 = alloca i32, align 4
  %3 = alloca ptr, align 8
  %4 = alloca ptr, align 8
  %5 = alloca i32, align 4
  store ptr %0, ptr %3, align 8, !tbaa !110
  %6 = load ptr, ptr %3, align 8, !tbaa !110
  %7 = icmp ne ptr %6, null
  br i1 %7, label %8, label %26

8:                                                ; preds = %1
  call void @llvm.lifetime.start.p0(i64 8, ptr %4) #20
  %9 = load ptr, ptr %3, align 8, !tbaa !110
  %10 = load ptr, ptr %9, align 8, !tbaa !12
  store ptr %10, ptr %4, align 8, !tbaa !108
  %11 = load ptr, ptr %4, align 8, !tbaa !108
  %12 = icmp ne ptr %11, null
  br i1 %12, label %13, label %22

13:                                               ; preds = %8
  %14 = load ptr, ptr %4, align 8, !tbaa !108
  %15 = call noundef zeroext i1 @_ZNK3zmq15socket_poller_t9check_tagEv(ptr noundef nonnull align 8 dereferenceable(56) %14)
  br i1 %15, label %16, label %22

16:                                               ; preds = %13
  %17 = load ptr, ptr %4, align 8, !tbaa !108
  %18 = icmp eq ptr %17, null
  br i1 %18, label %20, label %19

19:                                               ; preds = %16
  call void @_ZN3zmq15socket_poller_tD1Ev(ptr noundef nonnull align 8 dereferenceable(56) %17) #20
  call void @_ZdlPv(ptr noundef %17) #22
  br label %20

20:                                               ; preds = %19, %16
  %21 = load ptr, ptr %3, align 8, !tbaa !110
  store ptr null, ptr %21, align 8, !tbaa !12
  store i32 0, ptr %2, align 4
  store i32 1, ptr %5, align 4
  br label %23

22:                                               ; preds = %13, %8
  store i32 0, ptr %5, align 4
  br label %23

23:                                               ; preds = %22, %20
  call void @llvm.lifetime.end.p0(i64 8, ptr %4) #20
  %24 = load i32, ptr %5, align 4
  switch i32 %24, label %30 [
    i32 0, label %25
    i32 1, label %28
  ]

25:                                               ; preds = %23
  br label %26

26:                                               ; preds = %25, %1
  %27 = call ptr @__errno_location() #19
  store i32 14, ptr %27, align 4, !tbaa !8
  store i32 -1, ptr %2, align 4
  br label %28

28:                                               ; preds = %26, %23
  %29 = load i32, ptr %2, align 4
  ret i32 %29

30:                                               ; preds = %23
  unreachable
}