; Function Attrs: mustprogress uwtable
define range(i32 -1, 1) i32 @zmq_poller_destroy(ptr noundef %0) local_unnamed_addr #1 {
  %.not = icmp eq ptr %0, null
  br i1 %.not, label %.thread, label %2

2:                                                ; preds = %1
  %3 = load ptr, ptr %0, align 8, !tbaa !71
  %.not10 = icmp eq ptr %3, null
  br i1 %.not10, label %.thread, label %4

4:                                                ; preds = %2
  %5 = tail call noundef zeroext i1 @_ZNK3zmq15socket_poller_t9check_tagEv(ptr noundef nonnull align 8 dereferenceable(56) %3)
  br i1 %5, label %6, label %.thread

6:                                                ; preds = %4
  tail call void @_ZN3zmq15socket_poller_tD1Ev(ptr noundef nonnull align 8 dereferenceable(56) %3) #22
  tail call void @_ZdlPv(ptr noundef nonnull %3) #23
  store ptr null, ptr %0, align 8, !tbaa !71
  br label %8

.thread:                                          ; preds = %2, %4, %1
  %7 = tail call ptr @__errno_location() #20
  store i32 14, ptr %7, align 4, !tbaa !3
  br label %8

8:                                                ; preds = %6, %.thread
  %.1 = phi i32 [ 0, %6 ], [ -1, %.thread ]
  ret i32 %.1
}